(dp1
S'description'
p2
S'CHAR(512)'
p3
sS'url'
p4
S'CHAR(512)'
p5
sS'picurl'
p6
S'CHAR(512)'
p7
sS'type'
p8
S'INTEGER'
p9
sS'id'
p10
S'INTEGER PRIMARY KEY AUTOINCREMENT'
p11
sS'name'
p12
S'CHAR(512)'
p13
s.