(dp1
S'description'
p2
S'CHAR(512)'
p3
sS'url'
p4
S'CHAR(512)'
p5
sS'picurl'
p6
S'CHAR(512)'
p7
sS'date'
p8
S'TIMESTAMP'
p9
sS'type'
p10
S'INTEGER'
p11
sS'id'
p12
S'INTEGER PRIMARY KEY AUTOINCREMENT'
p13
sS'name'
p14
S'CHAR(512)'
p15
s.