(dp1
S'username'
p2
S'CHAR(128)'
p3
sS'first_name'
p4
S'CHAR(128)'
p5
sS'last_name'
p6
S'CHAR(128)'
p7
sS'home_node'
p8
S'INTEGER REFERENCES node(id) ON DELETE CASCADE'
p9
sS'registration_id'
p10
S'CHAR(512)'
p11
sS'email'
p12
S'CHAR(512)'
p13
sS'reset_password_key'
p14
S'CHAR(512)'
p15
sS'personal_node'
p16
S'CHAR(512)'
p17
sS'password'
p18
S'CHAR(512)'
p19
sS'registration_key'
p20
S'CHAR(512)'
p21
sS'id'
p22
S'INTEGER PRIMARY KEY AUTOINCREMENT'
p23
s.